target datalayout = "e-m:e-p270:32:32-p271:32:32-p272:64:64-i64:64-i128:128-f80:128-n8:16:32:64-S128"
target triple = "x86_64-pc-linux-gnu"

%struct.PGShmemHeader = type { i32, i32, i64, i64, i32, ptr, i64, i64 }
%union.LWLockPadded = type { %struct.LWLock, [112 x i8] }
%struct.LWLock = type { i16, %struct.pg_atomic_uint32, %struct.proclist_head }
%struct.pg_atomic_uint32 = type { i32 }
%struct.proclist_head = type { i32, i32 }
%struct.ShmemIndexEnt = type { [48 x i8], ptr, i64, i64 }
%struct.HASH_SEQ_STATUS = type { ptr, i32, ptr, i8, i32 }
%struct.FunctionCallInfoBaseData = type { ptr, ptr, ptr, i32, i8, i16, [0 x %struct.NullableDatum] }
%struct.NullableDatum = type { i64, i8 }
%struct.ReturnSetInfo = type { i32, ptr, ptr, i32, i32, i32, ptr, ptr }

@ShmemSegHdr = internal global ptr null, align 8
@ShmemIndex = internal global ptr null, align 8
@MainLWLockArray = external global ptr, align 8
@.str.7 = private unnamed_addr constant [12 x i8] c"<anonymous>\00", align 1

; Function Attrs: inlinehint nounwind uwtable
define internal i64 @Int64GetDatum(i64 noundef %0) #5 {
  %2 = alloca i64, align 8
  store i64 %0, ptr %2, align 8
  %3 = load i64, ptr %2, align 8
  ret i64 %3
}

; Function Attrs: inlinehint nounwind uwtable
define internal i64 @PointerGetDatum(ptr noundef %0) #5 {
  %2 = alloca ptr, align 8
  store ptr %0, ptr %2, align 8
  %3 = load ptr, ptr %2, align 8
  %4 = ptrtoint ptr %3 to i64
  ret i64 %4
}

; Function Attrs: nounwind uwtable
define dso_local i64 @pg_get_shmem_allocations(ptr noundef %0) #0 {
  %2 = alloca ptr, align 8
  %3 = alloca ptr, align 8
  %4 = alloca %struct.HASH_SEQ_STATUS, align 8
  %5 = alloca ptr, align 8
  %6 = alloca i64, align 8
  %7 = alloca [4 x i64], align 16
  %8 = alloca [4 x i8], align 1
  store ptr %0, ptr %2, align 8
  call void @llvm.lifetime.start.p0(i64 8, ptr %3) #6
  %9 = load ptr, ptr %2, align 8
  %10 = getelementptr inbounds nuw %struct.FunctionCallInfoBaseData, ptr %9, i32 0, i32 2
  %11 = load ptr, ptr %10, align 8
  store ptr %11, ptr %3, align 8
  call void @llvm.lifetime.start.p0(i64 32, ptr %4) #6
  call void @llvm.lifetime.start.p0(i64 8, ptr %5) #6
  call void @llvm.lifetime.start.p0(i64 8, ptr %6) #6
  store i64 0, ptr %6, align 8
  call void @llvm.lifetime.start.p0(i64 32, ptr %7) #6
  call void @llvm.lifetime.start.p0(i64 4, ptr %8) #6
  %12 = load ptr, ptr %2, align 8
  call void @InitMaterializedSRF(ptr noundef %12, i32 noundef 0)
  %13 = load ptr, ptr @MainLWLockArray, align 8
  %14 = getelementptr inbounds %union.LWLockPadded, ptr %13, i64 1
  %15 = call zeroext i1 @LWLockAcquire(ptr noundef %14, i32 noundef 1)
  %16 = load ptr, ptr @ShmemIndex, align 8
  call void @hash_seq_init(ptr noundef %4, ptr noundef %16)
  %17 = getelementptr inbounds [4 x i8], ptr %8, i64 0, i64 0
  call void @llvm.memset.p0.i64(ptr align 1 %17, i8 0, i64 4, i1 false)
  br label %18

18:                                               ; preds = %21, %1
  %19 = call ptr @hash_seq_search(ptr noundef %4)
  store ptr %19, ptr %5, align 8
  %20 = icmp ne ptr %19, null
  br i1 %20, label %21, label %60

21:                                               ; preds = %18
  %22 = load ptr, ptr %5, align 8
  %23 = getelementptr inbounds nuw %struct.ShmemIndexEnt, ptr %22, i32 0, i32 0
  %24 = getelementptr inbounds [48 x i8], ptr %23, i64 0, i64 0
  %25 = call ptr @cstring_to_text(ptr noundef %24)
  %26 = call i64 @PointerGetDatum(ptr noundef %25)
  %27 = getelementptr inbounds [4 x i64], ptr %7, i64 0, i64 0
  store i64 %26, ptr %27, align 16
  %28 = load ptr, ptr %5, align 8
  %29 = getelementptr inbounds nuw %struct.ShmemIndexEnt, ptr %28, i32 0, i32 1
  %30 = load ptr, ptr %29, align 8
  %31 = load ptr, ptr @ShmemSegHdr, align 8
  %32 = ptrtoint ptr %30 to i64
  %33 = ptrtoint ptr %31 to i64
  %34 = sub i64 %32, %33
  %35 = call i64 @Int64GetDatum(i64 noundef %34)
  %36 = getelementptr inbounds [4 x i64], ptr %7, i64 0, i64 1
  store i64 %35, ptr %36, align 8
  %37 = load ptr, ptr %5, align 8
  %38 = getelementptr inbounds nuw %struct.ShmemIndexEnt, ptr %37, i32 0, i32 2
  %39 = load i64, ptr %38, align 8
  %40 = call i64 @Int64GetDatum(i64 noundef %39)
  %41 = getelementptr inbounds [4 x i64], ptr %7, i64 0, i64 2
  store i64 %40, ptr %41, align 16
  %42 = load ptr, ptr %5, align 8
  %43 = getelementptr inbounds nuw %struct.ShmemIndexEnt, ptr %42, i32 0, i32 3
  %44 = load i64, ptr %43, align 8
  %45 = call i64 @Int64GetDatum(i64 noundef %44)
  %46 = getelementptr inbounds [4 x i64], ptr %7, i64 0, i64 3
  store i64 %45, ptr %46, align 8
  %47 = load ptr, ptr %5, align 8
  %48 = getelementptr inbounds nuw %struct.ShmemIndexEnt, ptr %47, i32 0, i32 3
  %49 = load i64, ptr %48, align 8
  %50 = load i64, ptr %6, align 8
  %51 = add i64 %50, %49
  store i64 %51, ptr %6, align 8
  %52 = load ptr, ptr %3, align 8
  %53 = getelementptr inbounds nuw %struct.ReturnSetInfo, ptr %52, i32 0, i32 6
  %54 = load ptr, ptr %53, align 8
  %55 = load ptr, ptr %3, align 8
  %56 = getelementptr inbounds nuw %struct.ReturnSetInfo, ptr %55, i32 0, i32 7
  %57 = load ptr, ptr %56, align 8
  %58 = getelementptr inbounds [4 x i64], ptr %7, i64 0, i64 0
  %59 = getelementptr inbounds [4 x i8], ptr %8, i64 0, i64 0
  call void @tuplestore_putvalues(ptr noundef %54, ptr noundef %57, ptr noundef %58, ptr noundef %59)
  br label %18, !llvm.loop !8

60:                                               ; preds = %18
  %61 = call ptr @cstring_to_text(ptr noundef @.str.7)
  %62 = call i64 @PointerGetDatum(ptr noundef %61)
  %63 = getelementptr inbounds [4 x i64], ptr %7, i64 0, i64 0
  store i64 %62, ptr %63, align 16
  %64 = getelementptr inbounds [4 x i8], ptr %8, i64 0, i64 1
  store i8 1, ptr %64, align 1
  %65 = load ptr, ptr @ShmemSegHdr, align 8
  %66 = getelementptr inbounds nuw %struct.PGShmemHeader, ptr %65, i32 0, i32 3
  %67 = load i64, ptr %66, align 8
  %68 = load i64, ptr %6, align 8
  %69 = sub i64 %67, %68
  %70 = call i64 @Int64GetDatum(i64 noundef %69)
  %71 = getelementptr inbounds [4 x i64], ptr %7, i64 0, i64 2
  store i64 %70, ptr %71, align 16
  %72 = getelementptr inbounds [4 x i64], ptr %7, i64 0, i64 2
  %73 = load i64, ptr %72, align 16
  %74 = getelementptr inbounds [4 x i64], ptr %7, i64 0, i64 3
  store i64 %73, ptr %74, align 8
  %75 = load ptr, ptr %3, align 8
  %76 = getelementptr inbounds nuw %struct.ReturnSetInfo, ptr %75, i32 0, i32 6
  %77 = load ptr, ptr %76, align 8
  %78 = load ptr, ptr %3, align 8
  %79 = getelementptr inbounds nuw %struct.ReturnSetInfo, ptr %78, i32 0, i32 7
  %80 = load ptr, ptr %79, align 8
  %81 = getelementptr inbounds [4 x i64], ptr %7, i64 0, i64 0
  %82 = getelementptr inbounds [4 x i8], ptr %8, i64 0, i64 0
  call void @tuplestore_putvalues(ptr noundef %77, ptr noundef %80, ptr noundef %81, ptr noundef %82)
  %83 = getelementptr inbounds [4 x i8], ptr %8, i64 0, i64 0
  store i8 1, ptr %83, align 1
  %84 = load ptr, ptr @ShmemSegHdr, align 8
  %85 = getelementptr inbounds nuw %struct.PGShmemHeader, ptr %84, i32 0, i32 3
  %86 = load i64, ptr %85, align 8
  %87 = call i64 @Int64GetDatum(i64 noundef %86)
  %88 = getelementptr inbounds [4 x i64], ptr %7, i64 0, i64 1
  store i64 %87, ptr %88, align 8
  %89 = getelementptr inbounds [4 x i8], ptr %8, i64 0, i64 1
  store i8 0, ptr %89, align 1
  %90 = load ptr, ptr @ShmemSegHdr, align 8
  %91 = getelementptr inbounds nuw %struct.PGShmemHeader, ptr %90, i32 0, i32 2
  %92 = load i64, ptr %91, align 8
  %93 = load ptr, ptr @ShmemSegHdr, align 8
  %94 = getelementptr inbounds nuw %struct.PGShmemHeader, ptr %93, i32 0, i32 3
  %95 = load i64, ptr %94, align 8
  %96 = sub i64 %92, %95
  %97 = call i64 @Int64GetDatum(i64 noundef %96)
  %98 = getelementptr inbounds [4 x i64], ptr %7, i64 0, i64 2
  store i64 %97, ptr %98, align 16
  %99 = getelementptr inbounds [4 x i64], ptr %7, i64 0, i64 2
  %100 = load i64, ptr %99, align 16
  %101 = getelementptr inbounds [4 x i64], ptr %7, i64 0, i64 3
  store i64 %100, ptr %101, align 8
  %102 = load ptr, ptr %3, align 8
  %103 = getelementptr inbounds nuw %struct.ReturnSetInfo, ptr %102, i32 0, i32 6
  %104 = load ptr, ptr %103, align 8
  %105 = load ptr, ptr %3, align 8
  %106 = getelementptr inbounds nuw %struct.ReturnSetInfo, ptr %105, i32 0, i32 7
  %107 = load ptr, ptr %106, align 8
  %108 = getelementptr inbounds [4 x i64], ptr %7, i64 0, i64 0
  %109 = getelementptr inbounds [4 x i8], ptr %8, i64 0, i64 0
  call void @tuplestore_putvalues(ptr noundef %104, ptr noundef %107, ptr noundef %108, ptr noundef %109)
  %110 = load ptr, ptr @MainLWLockArray, align 8
  %111 = getelementptr inbounds %union.LWLockPadded, ptr %110, i64 1
  call void @LWLockRelease(ptr noundef %111)
  call void @llvm.lifetime.end.p0(i64 4, ptr %8) #6
  call void @llvm.lifetime.end.p0(i64 32, ptr %7) #6
  call void @llvm.lifetime.end.p0(i64 8, ptr %6) #6
  call void @llvm.lifetime.end.p0(i64 8, ptr %5) #6
  call void @llvm.lifetime.end.p0(i64 32, ptr %4) #6
  call void @llvm.lifetime.end.p0(i64 8, ptr %3) #6
  ret i64 0
}