; Function Attrs: nounwind uwtable
define dso_local noundef i64 @pg_get_shmem_allocations(ptr noundef %0) local_unnamed_addr #1 {
  %2 = alloca %struct.HASH_SEQ_STATUS, align 8
  %3 = alloca [4 x i64], align 16
  %4 = alloca [4 x i8], align 4
  %5 = getelementptr inbounds nuw i8, ptr %0, i64 16
  %6 = load ptr, ptr %5, align 8
  call void @llvm.lifetime.start.p0(i64 32, ptr nonnull %2) #9
  call void @llvm.lifetime.start.p0(i64 32, ptr nonnull %3) #9
  call void @llvm.lifetime.start.p0(i64 4, ptr nonnull %4) #9
  tail call void @InitMaterializedSRF(ptr noundef %0, i32 noundef 0) #9
  %7 = load ptr, ptr @MainLWLockArray, align 8
  %8 = getelementptr inbounds nuw i8, ptr %7, i64 128
  %9 = tail call zeroext i1 @LWLockAcquire(ptr noundef nonnull %8, i32 noundef 1) #9
  %10 = load ptr, ptr @ShmemIndex, align 8
  call void @hash_seq_init(ptr noundef nonnull %2, ptr noundef %10) #9
  store i32 0, ptr %4, align 4
  %11 = call ptr @hash_seq_search(ptr noundef nonnull %2) #9
  %.not15 = icmp eq ptr %11, null
  br i1 %.not15, label %._crit_edge, label %.lr.ph

.lr.ph:                                           ; preds = %1
  %12 = getelementptr inbounds nuw i8, ptr %3, i64 8
  %13 = getelementptr inbounds nuw i8, ptr %3, i64 16
  %14 = getelementptr inbounds nuw i8, ptr %3, i64 24
  %15 = getelementptr inbounds nuw i8, ptr %6, i64 40
  %16 = getelementptr inbounds nuw i8, ptr %6, i64 48
  br label %17

17:                                               ; preds = %.lr.ph, %17
  %18 = phi ptr [ %11, %.lr.ph ], [ %34, %17 ]
  %.016 = phi i64 [ 0, %.lr.ph ], [ %31, %17 ]
  %19 = call ptr @cstring_to_text(ptr noundef nonnull %18) #9
  %20 = ptrtoint ptr %19 to i64
  store i64 %20, ptr %3, align 16
  %21 = getelementptr inbounds nuw i8, ptr %18, i64 48
  %22 = load ptr, ptr %21, align 8
  %23 = load ptr, ptr @ShmemSegHdr, align 8
  %24 = ptrtoint ptr %22 to i64
  %25 = ptrtoint ptr %23 to i64
  %26 = sub i64 %24, %25
  store i64 %26, ptr %12, align 8
  %27 = getelementptr inbounds nuw i8, ptr %18, i64 56
  %28 = load i64, ptr %27, align 8
  store i64 %28, ptr %13, align 16
  %29 = getelementptr inbounds nuw i8, ptr %18, i64 64
  %30 = load i64, ptr %29, align 8
  store i64 %30, ptr %14, align 8
  %31 = add i64 %30, %.016
  %32 = load ptr, ptr %15, align 8
  %33 = load ptr, ptr %16, align 8
  call void @tuplestore_putvalues(ptr noundef %32, ptr noundef %33, ptr noundef nonnull %3, ptr noundef nonnull %4) #9
  %34 = call ptr @hash_seq_search(ptr noundef nonnull %2) #9
  %.not = icmp eq ptr %34, null
  br i1 %.not, label %._crit_edge, label %17, !llvm.loop !9

._crit_edge:                                      ; preds = %17, %1
  %.0.lcssa = phi i64 [ 0, %1 ], [ %31, %17 ]
  %35 = call ptr @cstring_to_text(ptr noundef nonnull @.str.7) #9
  %36 = ptrtoint ptr %35 to i64
  store i64 %36, ptr %3, align 16
  %37 = getelementptr inbounds nuw i8, ptr %4, i64 1
  store i8 1, ptr %37, align 1
  %38 = load ptr, ptr @ShmemSegHdr, align 8
  %39 = getelementptr inbounds nuw i8, ptr %38, i64 16
  %40 = load i64, ptr %39, align 8
  %41 = sub i64 %40, %.0.lcssa
  %42 = getelementptr inbounds nuw i8, ptr %3, i64 16
  store i64 %41, ptr %42, align 16
  %43 = getelementptr inbounds nuw i8, ptr %3, i64 24
  store i64 %41, ptr %43, align 8
  %44 = getelementptr inbounds nuw i8, ptr %6, i64 40
  %45 = load ptr, ptr %44, align 8
  %46 = getelementptr inbounds nuw i8, ptr %6, i64 48
  %47 = load ptr, ptr %46, align 8
  call void @tuplestore_putvalues(ptr noundef %45, ptr noundef %47, ptr noundef nonnull %3, ptr noundef nonnull %4) #9
  store i8 1, ptr %4, align 4
  %48 = load ptr, ptr @ShmemSegHdr, align 8
  %49 = getelementptr inbounds nuw i8, ptr %48, i64 16
  %50 = load i64, ptr %49, align 8
  %51 = getelementptr inbounds nuw i8, ptr %3, i64 8
  store i64 %50, ptr %51, align 8
  store i8 0, ptr %37, align 1
  %52 = getelementptr inbounds nuw i8, ptr %48, i64 8
  %53 = load i64, ptr %52, align 8
  %54 = sub i64 %53, %50
  store i64 %54, ptr %42, align 16
  store i64 %54, ptr %43, align 8
  %55 = load ptr, ptr %44, align 8
  %56 = load ptr, ptr %46, align 8
  call void @tuplestore_putvalues(ptr noundef %55, ptr noundef %56, ptr noundef nonnull %3, ptr noundef nonnull %4) #9
  %57 = load ptr, ptr @MainLWLockArray, align 8
  %58 = getelementptr inbounds nuw i8, ptr %57, i64 128
  call void @LWLockRelease(ptr noundef nonnull %58) #9
  call void @llvm.lifetime.end.p0(i64 4, ptr nonnull %4) #9
  call void @llvm.lifetime.end.p0(i64 32, ptr nonnull %3) #9
  call void @llvm.lifetime.end.p0(i64 32, ptr nonnull %2) #9
  ret i64 0
}